target datalayout = "e-m:e-p270:32:32-p271:32:32-p272:64:64-i64:64-i128:128-f80:128-n8:16:32:64-S128"
target triple = "x86_64-pc-linux-gnu"

%struct.WOLFSSL_BUFFER_INFO = type { ptr, i32 }
%struct.WOLFSSL = type <{ ptr, ptr, ptr, ptr, [48 x i8], [48 x i8], ptr, ptr, ptr, ptr, ptr, ptr, ptr, ptr, ptr, ptr, ptr, ptr, ptr, i32, [4 x i8], %struct.WOLFSSL_CIPHER, ptr, %struct.Ciphers, %struct.Ciphers, [8 x i8], %struct.Buffers, ptr, ptr, %struct.WOLFSSL_ALERT_HISTORY, %struct.WOLFSSL_ALERT, i32, i32, i32, i32, i32, i32, i32, i16, [2 x i8], i32, i8, %struct.RecordLayerHeader, %struct.MsgsReceived, %struct.ProtocolVersion, %struct.ProtocolVersion, %struct.CipherSpecs, [2 x i8], %struct.Keys, %struct.Options, ptr, i8, i8, i16, [10 x i16], i8, i8, i16, i16, [38 x i8], i32, i32, [4 x i8], ptr, i8, i8, [6 x i8], ptr, ptr, i16, i8, i8, i32, i8, [3 x i8], i32, %struct.OneTimeAuth, ptr }>
%struct.WOLFSSL_CIPHER = type { i8, i8, ptr }
%struct.Ciphers = type { ptr, ptr, ptr, ptr, i8, i8 }
%struct.Buffers = type { %struct.bufferStatic, %struct.bufferStatic, %struct.WOLFSSL_BUFFER_INFO, %struct.WOLFSSL_BUFFER_INFO, %struct.WOLFSSL_BUFFER_INFO, %struct.WOLFSSL_BUFFER_INFO, i32, i32, i8, i8, i8, i8, %struct.WOLFSSL_BUFFER_INFO, %struct.WOLFSSL_BUFFER_INFO, %struct.WOLFSSL_BUFFER_INFO, %struct.WOLFSSL_BUFFER_INFO, ptr, ptr, ptr, i8, i8, i32, i32, ptr, i32, [1 x ptr] }
%struct.bufferStatic = type { [5 x i8], ptr, i32, i32, i32, i8, i8 }
%struct.WOLFSSL_ALERT_HISTORY = type { %struct.WOLFSSL_ALERT, %struct.WOLFSSL_ALERT }
%struct.WOLFSSL_ALERT = type { i32, i32 }
%struct.RecordLayerHeader = type { i8, i8, i8, [2 x i8] }
%struct.MsgsReceived = type { i32 }
%struct.ProtocolVersion = type { i8, i8 }
%struct.CipherSpecs = type { i16, i16, i16, i16, i8, i8, i8, i8, i8, i8, i8, i8 }
%struct.Keys = type { [64 x i8], [64 x i8], [32 x i8], [32 x i8], [16 x i8], [16 x i8], [8 x i8], [12 x i8], [12 x i8], i32, i32, i32, i32, i32, i32, i8, i8, i8, i8 }
%struct.Options = type { i64, i64, i8, i8, i8, i8, i8, i8, i8, i8, i8, i8, i8, i8, i8, i8, i8, i8, i8, i8, i8, i8, i8, i16, i16, i16, i16, i16, i8 }
%struct.OneTimeAuth = type { ptr, i8 }

; Function Attrs: nounwind uwtable
define i32 @wolfSSL_get_error(ptr noundef %0, i32 noundef %1) #0 {
  %3 = alloca i32, align 4
  %4 = alloca ptr, align 8
  %5 = alloca i32, align 4
  store ptr %0, ptr %4, align 8, !tbaa !61
  store i32 %1, ptr %5, align 4, !tbaa !7
  br label %6

6:                                                ; preds = %2
  br label %7

7:                                                ; preds = %6
  %8 = load i32, ptr %5, align 4, !tbaa !7
  %9 = icmp sgt i32 %8, 0
  br i1 %9, label %10, label %11

10:                                               ; preds = %7
  store i32 0, ptr %3, align 4
  br label %48

11:                                               ; preds = %7
  %12 = load ptr, ptr %4, align 8, !tbaa !61
  %13 = icmp eq ptr %12, null
  br i1 %13, label %14, label %15

14:                                               ; preds = %11
  store i32 -173, ptr %3, align 4
  br label %48

15:                                               ; preds = %11
  br label %16

16:                                               ; preds = %15
  br label %17

17:                                               ; preds = %16
  %18 = load ptr, ptr %4, align 8, !tbaa !61
  %19 = getelementptr inbounds nuw %struct.WOLFSSL, ptr %18, i32 0, i32 31
  %20 = load i32, ptr %19, align 8, !tbaa !152
  %21 = icmp eq i32 %20, -323
  br i1 %21, label %22, label %23

22:                                               ; preds = %17
  store i32 2, ptr %3, align 4
  br label %48

23:                                               ; preds = %17
  %24 = load ptr, ptr %4, align 8, !tbaa !61
  %25 = getelementptr inbounds nuw %struct.WOLFSSL, ptr %24, i32 0, i32 31
  %26 = load i32, ptr %25, align 8, !tbaa !152
  %27 = icmp eq i32 %26, -327
  br i1 %27, label %28, label %29

28:                                               ; preds = %23
  store i32 3, ptr %3, align 4
  br label %48

29:                                               ; preds = %23
  %30 = load ptr, ptr %4, align 8, !tbaa !61
  %31 = getelementptr inbounds nuw %struct.WOLFSSL, ptr %30, i32 0, i32 31
  %32 = load i32, ptr %31, align 8, !tbaa !152
  %33 = icmp eq i32 %32, -343
  br i1 %33, label %41, label %34

34:                                               ; preds = %29
  %35 = load ptr, ptr %4, align 8, !tbaa !61
  %36 = getelementptr inbounds nuw %struct.WOLFSSL, ptr %35, i32 0, i32 49
  %37 = getelementptr inbounds nuw %struct.Options, ptr %36, i32 0, i32 4
  %38 = load i8, ptr %37, align 2, !tbaa !192
  %39 = zext i8 %38 to i32
  %40 = icmp ne i32 %39, 0
  br i1 %40, label %41, label %42

41:                                               ; preds = %34, %29
  store i32 6, ptr %3, align 4
  br label %48

42:                                               ; preds = %34
  br label %43

43:                                               ; preds = %42
  br label %44

44:                                               ; preds = %43
  %45 = load ptr, ptr %4, align 8, !tbaa !61
  %46 = getelementptr inbounds nuw %struct.WOLFSSL, ptr %45, i32 0, i32 31
  %47 = load i32, ptr %46, align 8, !tbaa !152
  store i32 %47, ptr %3, align 4
  br label %48

48:                                               ; preds = %44, %41, %28, %22, %14, %10
  %49 = load i32, ptr %3, align 4
  ret i32 %49
}