; Function Attrs: mustprogress nofree norecurse nosync nounwind willreturn memory(argmem: read) uwtable
define range(i32 -322, -323) i32 @wolfSSL_get_error(ptr noundef readonly captures(address_is_null) %0, i32 noundef %1) local_unnamed_addr #9 {
  %3 = icmp sgt i32 %1, 0
  br i1 %3, label %14, label %4

4:                                                ; preds = %2
  %5 = icmp eq ptr %0, null
  br i1 %5, label %14, label %6

6:                                                ; preds = %4
  %7 = getelementptr inbounds nuw i8, ptr %0, i64 664
  %8 = load i32, ptr %7, align 8, !tbaa !130
  switch i32 %8, label %10 [
    i32 -323, label %14
    i32 -327, label %9
    i32 -343, label %13
  ]

9:                                                ; preds = %6
  br label %14

10:                                               ; preds = %6
  %11 = getelementptr inbounds nuw i8, ptr %0, i64 1034
  %12 = load i8, ptr %11, align 2, !tbaa !171
  %.not = icmp eq i8 %12, 0
  br i1 %.not, label %14, label %13

13:                                               ; preds = %6, %10
  br label %14

14:                                               ; preds = %10, %6, %4, %2, %13, %9
  %.0 = phi i32 [ 3, %9 ], [ 6, %13 ], [ 0, %2 ], [ -173, %4 ], [ 2, %6 ], [ %8, %10 ]
  ret i32 %.0
}